target datalayout = "e-m:e-p270:32:32-p271:32:32-p272:64:64-i64:64-i128:128-f80:128-n8:16:32:64-S128"
target triple = "x86_64-pc-linux-gnu"

; Function Attrs: nounwind uwtable
define dso_local void @luaGC(ptr noundef %0, ptr noundef %1) #0 {
  %3 = alloca ptr, align 8
  %4 = alloca ptr, align 8
  store ptr %0, ptr %3, align 8, !tbaa !5
  store ptr %1, ptr %4, align 8, !tbaa !99
  %5 = load ptr, ptr %4, align 8, !tbaa !99
  %6 = load i32, ptr %5, align 4, !tbaa !16
  %7 = add nsw i32 %6, 1
  store i32 %7, ptr %5, align 4, !tbaa !16
  %8 = load ptr, ptr %4, align 8, !tbaa !99
  %9 = load i32, ptr %8, align 4, !tbaa !16
  %10 = icmp sge i32 %9, 50
  br i1 %10, label %11, label %15

11:                                               ; preds = %2
  %12 = load ptr, ptr %3, align 8, !tbaa !5
  %13 = call i32 @lua_gc(ptr noundef %12, i32 noundef 5, i32 noundef 50)
  %14 = load ptr, ptr %4, align 8, !tbaa !99
  store i32 0, ptr %14, align 4, !tbaa !16
  br label %15

15:                                               ; preds = %11, %2
  ret void
}