; Function Attrs: nounwind uwtable
define dso_local void @luaGC(ptr noundef %0, ptr noundef captures(none) %1) local_unnamed_addr #0 {
  %3 = load i32, ptr %1, align 4, !tbaa !19
  %4 = add nsw i32 %3, 1
  store i32 %4, ptr %1, align 4, !tbaa !19
  %5 = icmp sgt i32 %3, 48
  br i1 %5, label %6, label %8

6:                                                ; preds = %2
  %7 = tail call i32 @lua_gc(ptr noundef %0, i32 noundef 5, i32 noundef 50) #11
  store i32 0, ptr %1, align 4, !tbaa !19
  br label %8

8:                                                ; preds = %6, %2
  ret void
}